target datalayout = "e-m:e-p270:32:32-p271:32:32-p272:64:64-i64:64-i128:128-f80:128-n8:16:32:64-S128"
target triple = "x86_64-pc-linux-gnu"

%"class.ncnn::Net" = type { ptr, %"class.ncnn::Option", ptr }
%"class.ncnn::Option" = type { i8, i32, ptr, ptr, i32, i8, i8, i8, i8, i8, i8, i8, i8, i8, i8, i8, i8, i8, i8, i8, i8, i8, i8, i8, i8, i32, i8, i8, i8, i8, i8, i8, i8, i8, i8, i8, i8, i8 }
%"class.ncnn::NetPrivate" = type { ptr, %"class.std::vector", %"class.std::vector.0", %"class.std::vector.5", %"class.std::vector.5", %"class.std::vector.10", %"class.std::vector.10", %"class.std::vector.15", %"class.std::vector.20", ptr, ptr }
%"class.std::vector" = type { %"struct.std::_Vector_base" }
%"struct.std::_Vector_base" = type { %"struct.std::_Vector_base<ncnn::Blob, std::allocator<ncnn::Blob>>::_Vector_impl" }
%"struct.std::_Vector_base<ncnn::Blob, std::allocator<ncnn::Blob>>::_Vector_impl" = type { %"struct.std::_Vector_base<ncnn::Blob, std::allocator<ncnn::Blob>>::_Vector_impl_data" }
%"struct.std::_Vector_base<ncnn::Blob, std::allocator<ncnn::Blob>>::_Vector_impl_data" = type { ptr, ptr, ptr }
%"class.std::vector.0" = type { %"struct.std::_Vector_base.1" }
%"struct.std::_Vector_base.1" = type { %"struct.std::_Vector_base<ncnn::Layer *, std::allocator<ncnn::Layer *>>::_Vector_impl" }
%"struct.std::_Vector_base<ncnn::Layer *, std::allocator<ncnn::Layer *>>::_Vector_impl" = type { %"struct.std::_Vector_base<ncnn::Layer *, std::allocator<ncnn::Layer *>>::_Vector_impl_data" }
%"struct.std::_Vector_base<ncnn::Layer *, std::allocator<ncnn::Layer *>>::_Vector_impl_data" = type { ptr, ptr, ptr }
%"class.std::vector.5" = type { %"struct.std::_Vector_base.6" }
%"struct.std::_Vector_base.6" = type { %"struct.std::_Vector_base<int, std::allocator<int>>::_Vector_impl" }
%"struct.std::_Vector_base<int, std::allocator<int>>::_Vector_impl" = type { %"struct.std::_Vector_base<int, std::allocator<int>>::_Vector_impl_data" }
%"struct.std::_Vector_base<int, std::allocator<int>>::_Vector_impl_data" = type { ptr, ptr, ptr }
%"class.std::vector.10" = type { %"struct.std::_Vector_base.11" }
%"struct.std::_Vector_base.11" = type { %"struct.std::_Vector_base<const char *, std::allocator<const char *>>::_Vector_impl" }
%"struct.std::_Vector_base<const char *, std::allocator<const char *>>::_Vector_impl" = type { %"struct.std::_Vector_base<const char *, std::allocator<const char *>>::_Vector_impl_data" }
%"struct.std::_Vector_base<const char *, std::allocator<const char *>>::_Vector_impl_data" = type { ptr, ptr, ptr }
%"class.std::vector.15" = type { %"struct.std::_Vector_base.16" }
%"struct.std::_Vector_base.16" = type { %"struct.std::_Vector_base<ncnn::custom_layer_registry_entry, std::allocator<ncnn::custom_layer_registry_entry>>::_Vector_impl" }
%"struct.std::_Vector_base<ncnn::custom_layer_registry_entry, std::allocator<ncnn::custom_layer_registry_entry>>::_Vector_impl" = type { %"struct.std::_Vector_base<ncnn::custom_layer_registry_entry, std::allocator<ncnn::custom_layer_registry_entry>>::_Vector_impl_data" }
%"struct.std::_Vector_base<ncnn::custom_layer_registry_entry, std::allocator<ncnn::custom_layer_registry_entry>>::_Vector_impl_data" = type { ptr, ptr, ptr }
%"class.std::vector.20" = type { %"struct.std::_Vector_base.21" }
%"struct.std::_Vector_base.21" = type { %"struct.std::_Vector_base<ncnn::overwrite_builtin_layer_registry_entry, std::allocator<ncnn::overwrite_builtin_layer_registry_entry>>::_Vector_impl" }
%"struct.std::_Vector_base<ncnn::overwrite_builtin_layer_registry_entry, std::allocator<ncnn::overwrite_builtin_layer_registry_entry>>::_Vector_impl" = type { %"struct.std::_Vector_base<ncnn::overwrite_builtin_layer_registry_entry, std::allocator<ncnn::overwrite_builtin_layer_registry_entry>>::_Vector_impl_data" }
%"struct.std::_Vector_base<ncnn::overwrite_builtin_layer_registry_entry, std::allocator<ncnn::overwrite_builtin_layer_registry_entry>>::_Vector_impl_data" = type { ptr, ptr, ptr }
%"class.ncnn::Extractor" = type { ptr, ptr }

@_ZN4ncnn9ExtractorC1EPKNS_3NetEm = hidden unnamed_addr alias void (ptr, ptr, i64), ptr @_ZN4ncnn9ExtractorC2EPKNS_3NetEm

; Function Attrs: mustprogress nounwind uwtable
define linkonce_odr hidden noundef i64 @_ZNKSt6vectorIN4ncnn4BlobESaIS1_EE4sizeEv(ptr noundef nonnull align 8 dereferenceable(24) %0) #0 comdat align 2 {
  %2 = alloca ptr, align 8
  store ptr %0, ptr %2, align 8, !tbaa !86
  %3 = load ptr, ptr %2, align 8
  %4 = getelementptr inbounds nuw %"struct.std::_Vector_base", ptr %3, i32 0, i32 0
  %5 = getelementptr inbounds nuw %"struct.std::_Vector_base<ncnn::Blob, std::allocator<ncnn::Blob>>::_Vector_impl_data", ptr %4, i32 0, i32 1
  %6 = load ptr, ptr %5, align 8, !tbaa !107
  %7 = getelementptr inbounds nuw %"struct.std::_Vector_base", ptr %3, i32 0, i32 0
  %8 = getelementptr inbounds nuw %"struct.std::_Vector_base<ncnn::Blob, std::allocator<ncnn::Blob>>::_Vector_impl_data", ptr %7, i32 0, i32 0
  %9 = load ptr, ptr %8, align 8, !tbaa !106
  %10 = ptrtoint ptr %6 to i64
  %11 = ptrtoint ptr %9 to i64
  %12 = sub i64 %10, %11
  %13 = sdiv exact i64 %12, 112
  ret i64 %13
}

; Function Attrs: mustprogress uwtable
define hidden void @_ZNK4ncnn3Net16create_extractorEv(ptr dead_on_unwind noalias writable sret(%"class.ncnn::Extractor") align 8 %0, ptr noundef nonnull align 8 dereferenceable(80) %1) #1 align 2 {
  %3 = alloca ptr, align 8
  %4 = alloca ptr, align 8
  store ptr %0, ptr %3, align 8
  store ptr %1, ptr %4, align 8, !tbaa !4
  %5 = load ptr, ptr %4, align 8
  %6 = getelementptr inbounds nuw %"class.ncnn::Net", ptr %5, i32 0, i32 2
  %7 = load ptr, ptr %6, align 8, !tbaa !11
  %8 = getelementptr inbounds nuw %"class.ncnn::NetPrivate", ptr %7, i32 0, i32 1
  %9 = call noundef i64 @_ZNKSt6vectorIN4ncnn4BlobESaIS1_EE4sizeEv(ptr noundef nonnull align 8 dereferenceable(24) %8) #16
  call void @_ZN4ncnn9ExtractorC1EPKNS_3NetEm(ptr noundef nonnull align 8 dereferenceable(16) %0, ptr noundef %5, i64 noundef %9)
  ret void
}