; Function Attrs: mustprogress uwtable
define hidden void @_ZNK4ncnn3Net16create_extractorEv(ptr dead_on_unwind noalias writable writeonly sret(%"class.ncnn::Extractor") align 8 captures(none) initializes((0, 8)) %0, ptr noundef nonnull align 8 dereferenceable(80) %1) local_unnamed_addr #2 align 2 personality ptr @__gxx_personality_v0 {
  %3 = getelementptr inbounds nuw i8, ptr %1, i64 72
  %4 = load ptr, ptr %3, align 8, !tbaa !7
  %5 = getelementptr inbounds nuw i8, ptr %4, i64 8
  %6 = getelementptr inbounds nuw i8, ptr %4, i64 16
  %7 = load ptr, ptr %6, align 8, !tbaa !119
  %8 = load ptr, ptr %5, align 8, !tbaa !65
  store ptr getelementptr inbounds nuw inrange(-16, 16) (i8, ptr @_ZTVN4ncnn9ExtractorE, i64 16), ptr %0, align 8, !tbaa !4
  %9 = tail call noalias noundef nonnull dereferenceable(96) ptr @_Znwm(i64 noundef 96) #31
  store ptr %1, ptr %9, align 8, !tbaa !210
  %10 = getelementptr inbounds nuw i8, ptr %9, i64 8
  tail call void @llvm.memset.p0.i64(ptr noundef nonnull align 8 dereferenceable(24) %10, i8 0, i64 24, i1 false)
  %11 = getelementptr inbounds nuw i8, ptr %9, i64 32
  invoke void @_ZN4ncnn6OptionC1Ev(ptr noundef nonnull align 8 dereferenceable(64) %11)
          to label %_ZN4ncnn9ExtractorC2EPKNS_3NetEm.exit unwind label %.body.i

.body.i:                                          ; preds = %2
  %12 = landingpad { ptr, i32 }
          cleanup
  tail call void @_ZNSt6vectorIN4ncnn3MatESaIS1_EED2Ev(ptr noundef nonnull align 8 dereferenceable(24) %10) #26
  tail call void @_ZdlPvm(ptr noundef nonnull %9, i64 noundef 96) #27
  resume { ptr, i32 } %12

_ZN4ncnn9ExtractorC2EPKNS_3NetEm.exit:            ; preds = %2
  %13 = ptrtoint ptr %7 to i64
  %14 = ptrtoint ptr %8 to i64
  %15 = sub i64 %13, %14
  %16 = sdiv exact i64 %15, 112
  %17 = getelementptr inbounds nuw i8, ptr %0, i64 8
  store ptr %9, ptr %17, align 8, !tbaa !213
  tail call void @_ZNSt6vectorIN4ncnn3MatESaIS1_EE6resizeEm(ptr noundef nonnull align 8 dereferenceable(24) %10, i64 noundef %16)
  %18 = load ptr, ptr %9, align 8, !tbaa !210
  %19 = getelementptr inbounds nuw i8, ptr %18, i64 8
  tail call void @llvm.memcpy.p0.p0.i64(ptr noundef nonnull align 8 dereferenceable(64) %11, ptr noundef nonnull align 8 dereferenceable(64) %19, i64 64, i1 false), !tbaa.struct !72
  ret void
}